target datalayout = "e-m:e-p270:32:32-p271:32:32-p272:64:64-i64:64-i128:128-f80:128-n8:16:32:64-S128"
target triple = "x86_64-pc-linux-gnu"

%struct.ResultRelInfo = type { i32, i32, ptr, i32, ptr, ptr, i16, ptr, i8, ptr, ptr, ptr, i8, i8, ptr, ptr, ptr, ptr, ptr, ptr, ptr, ptr, ptr, ptr, i8, i32, i32, i32, ptr, ptr, ptr, ptr, ptr, ptr, ptr, i32, i32, ptr, ptr, ptr, ptr, [3 x ptr], ptr, ptr, ptr, i8, ptr, i8, ptr, ptr, ptr, ptr }
%struct.RelationData = type { %struct.RelFileLocator, ptr, i32, i32, i8, i8, i8, i8, i8, i32, i32, i32, i32, ptr, ptr, i32, %struct.LockInfoData, ptr, ptr, ptr, ptr, ptr, i8, ptr, ptr, ptr, ptr, ptr, ptr, i32, ptr, i8, ptr, ptr, i32, i8, i32, ptr, i8, ptr, ptr, ptr, ptr, ptr, ptr, ptr, i32, ptr, ptr, ptr, ptr, ptr, ptr, ptr, ptr, ptr, ptr, ptr, ptr, ptr, ptr, ptr, ptr, ptr, ptr, ptr, i32, i8, ptr }
%struct.RelFileLocator = type { i32, i32, i32 }
%struct.LockInfoData = type { %struct.LockRelId }
%struct.LockRelId = type { i32, i32 }
%struct.EState = type { i32, i32, ptr, ptr, ptr, i32, ptr, ptr, ptr, ptr, ptr, ptr, ptr, ptr, ptr, ptr, i32, ptr, ptr, ptr, ptr, ptr, ptr, ptr, ptr, ptr, ptr, i64, i64, i32, i32, i8, ptr, ptr, ptr, ptr, ptr, i8, i32, i32, ptr, i32, ptr, ptr, ptr, ptr }
%struct.ModifyTableState = type { %struct.PlanState, i32, i8, i8, i32, ptr, ptr, %struct.EPQState, i8, i32, i32, i32, ptr, ptr, ptr, ptr, ptr, i32, ptr, ptr, double, double, double, ptr, ptr, ptr }
%struct.PlanState = type { i32, ptr, ptr, ptr, ptr, ptr, ptr, ptr, ptr, ptr, ptr, ptr, ptr, ptr, ptr, ptr, ptr, ptr, i8, ptr, ptr, ptr, ptr, ptr, i8, i8, i8, i8, i8, i8, i8, i8 }
%struct.EPQState = type { ptr, i32, ptr, ptr, ptr, ptr, ptr, ptr, ptr, ptr, ptr, ptr, ptr }
%struct.ForEachState = type { ptr, i32 }
%struct.Plan = type { i32, i32, double, double, double, i32, i8, i8, i8, i32, ptr, ptr, ptr, ptr, ptr, ptr, ptr }
%struct.List = type { i32, i32, i32, ptr, [0 x %union.ListCell] }
%union.ListCell = type { ptr }
%struct.TargetEntry = type { %struct.Expr, ptr, i16, ptr, i32, i32, i16, i8 }
%struct.Expr = type { i32 }

; Function Attrs: nounwind uwtable
define internal void @ExecInitInsertProjection(ptr noundef %0, ptr noundef %1) #0 {
  %3 = alloca ptr, align 8
  %4 = alloca ptr, align 8
  %5 = alloca ptr, align 8
  %6 = alloca ptr, align 8
  %7 = alloca ptr, align 8
  %8 = alloca ptr, align 8
  %9 = alloca i8, align 1
  %10 = alloca ptr, align 8
  %11 = alloca %struct.ForEachState, align 8
  %12 = alloca ptr, align 8
  %13 = alloca ptr, align 8
  store ptr %0, ptr %3, align 8
  store ptr %1, ptr %4, align 8
  call void @llvm.lifetime.start.p0(i64 8, ptr %5) #8
  %14 = load ptr, ptr %3, align 8
  %15 = getelementptr inbounds nuw %struct.ModifyTableState, ptr %14, i32 0, i32 0
  %16 = getelementptr inbounds nuw %struct.PlanState, ptr %15, i32 0, i32 1
  %17 = load ptr, ptr %16, align 8
  store ptr %17, ptr %5, align 8
  call void @llvm.lifetime.start.p0(i64 8, ptr %6) #8
  %18 = load ptr, ptr %5, align 8
  %19 = getelementptr inbounds nuw %struct.Plan, ptr %18, i32 0, i32 12
  %20 = load ptr, ptr %19, align 8
  store ptr %20, ptr %6, align 8
  call void @llvm.lifetime.start.p0(i64 8, ptr %7) #8
  %21 = load ptr, ptr %3, align 8
  %22 = getelementptr inbounds nuw %struct.ModifyTableState, ptr %21, i32 0, i32 0
  %23 = getelementptr inbounds nuw %struct.PlanState, ptr %22, i32 0, i32 2
  %24 = load ptr, ptr %23, align 8
  store ptr %24, ptr %7, align 8
  call void @llvm.lifetime.start.p0(i64 8, ptr %8) #8
  store ptr null, ptr %8, align 8
  call void @llvm.lifetime.start.p0(i64 1, ptr %9) #8
  store i8 0, ptr %9, align 1
  call void @llvm.lifetime.start.p0(i64 8, ptr %10) #8
  call void @llvm.lifetime.start.p0(i64 16, ptr %11) #8
  %25 = getelementptr inbounds nuw %struct.ForEachState, ptr %11, i32 0, i32 0
  %26 = load ptr, ptr %6, align 8
  %27 = getelementptr inbounds nuw %struct.Plan, ptr %26, i32 0, i32 10
  %28 = load ptr, ptr %27, align 8
  store ptr %28, ptr %25, align 8
  %29 = getelementptr inbounds nuw %struct.ForEachState, ptr %11, i32 0, i32 1
  store i32 0, ptr %29, align 8
  %30 = getelementptr i8, ptr %11, i64 12
  call void @llvm.memset.p0.i64(ptr align 4 %30, i8 0, i64 4, i1 false)
  br label %31

31:                                               ; preds = %70, %2
  %32 = getelementptr inbounds nuw %struct.ForEachState, ptr %11, i32 0, i32 0
  %33 = load ptr, ptr %32, align 8
  %34 = icmp ne ptr %33, null
  br i1 %34, label %35, label %52

35:                                               ; preds = %31
  %36 = getelementptr inbounds nuw %struct.ForEachState, ptr %11, i32 0, i32 1
  %37 = load i32, ptr %36, align 8
  %38 = getelementptr inbounds nuw %struct.ForEachState, ptr %11, i32 0, i32 0
  %39 = load ptr, ptr %38, align 8
  %40 = getelementptr inbounds nuw %struct.List, ptr %39, i32 0, i32 1
  %41 = load i32, ptr %40, align 4
  %42 = icmp slt i32 %37, %41
  br i1 %42, label %43, label %52

43:                                               ; preds = %35
  %44 = getelementptr inbounds nuw %struct.ForEachState, ptr %11, i32 0, i32 0
  %45 = load ptr, ptr %44, align 8
  %46 = getelementptr inbounds nuw %struct.List, ptr %45, i32 0, i32 3
  %47 = load ptr, ptr %46, align 8
  %48 = getelementptr inbounds nuw %struct.ForEachState, ptr %11, i32 0, i32 1
  %49 = load i32, ptr %48, align 8
  %50 = sext i32 %49 to i64
  %51 = getelementptr inbounds %union.ListCell, ptr %47, i64 %50
  store ptr %51, ptr %10, align 8
  br label %53

52:                                               ; preds = %35, %31
  store ptr null, ptr %10, align 8
  br label %53

53:                                               ; preds = %52, %43
  %54 = phi i32 [ 1, %43 ], [ 0, %52 ]
  %55 = icmp ne i32 %54, 0
  br i1 %55, label %57, label %56

56:                                               ; preds = %53
  call void @llvm.lifetime.end.p0(i64 16, ptr %11) #8
  br label %74

57:                                               ; preds = %53
  call void @llvm.lifetime.start.p0(i64 8, ptr %12) #8
  %58 = load ptr, ptr %10, align 8
  %59 = load ptr, ptr %58, align 8
  store ptr %59, ptr %12, align 8
  %60 = load ptr, ptr %12, align 8
  %61 = getelementptr inbounds nuw %struct.TargetEntry, ptr %60, i32 0, i32 7
  %62 = load i8, ptr %61, align 2, !range !4, !noundef !5
  %63 = trunc i8 %62 to i1
  br i1 %63, label %68, label %64

64:                                               ; preds = %57
  %65 = load ptr, ptr %8, align 8
  %66 = load ptr, ptr %12, align 8
  %67 = call ptr @lappend(ptr noundef %65, ptr noundef %66)
  store ptr %67, ptr %8, align 8
  br label %69

68:                                               ; preds = %57
  store i8 1, ptr %9, align 1
  br label %69

69:                                               ; preds = %68, %64
  call void @llvm.lifetime.end.p0(i64 8, ptr %12) #8
  br label %70

70:                                               ; preds = %69
  %71 = getelementptr inbounds nuw %struct.ForEachState, ptr %11, i32 0, i32 1
  %72 = load i32, ptr %71, align 8
  %73 = add i32 %72, 1
  store i32 %73, ptr %71, align 8
  br label %31, !llvm.loop !23

74:                                               ; preds = %56
  %75 = load ptr, ptr %4, align 8
  %76 = getelementptr inbounds nuw %struct.ResultRelInfo, ptr %75, i32 0, i32 2
  %77 = load ptr, ptr %76, align 8
  %78 = load ptr, ptr %8, align 8
  call void @ExecCheckPlanOutput(ptr noundef %77, ptr noundef %78)
  %79 = load ptr, ptr %4, align 8
  %80 = getelementptr inbounds nuw %struct.ResultRelInfo, ptr %79, i32 0, i32 2
  %81 = load ptr, ptr %80, align 8
  %82 = load ptr, ptr %7, align 8
  %83 = getelementptr inbounds nuw %struct.EState, ptr %82, i32 0, i32 26
  %84 = call ptr @table_slot_create(ptr noundef %81, ptr noundef %83)
  %85 = load ptr, ptr %4, align 8
  %86 = getelementptr inbounds nuw %struct.ResultRelInfo, ptr %85, i32 0, i32 10
  store ptr %84, ptr %86, align 8
  %87 = load i8, ptr %9, align 1, !range !4, !noundef !5
  %88 = trunc i8 %87 to i1
  br i1 %88, label %89, label %119

89:                                               ; preds = %74
  call void @llvm.lifetime.start.p0(i64 8, ptr %13) #8
  %90 = load ptr, ptr %4, align 8
  %91 = getelementptr inbounds nuw %struct.ResultRelInfo, ptr %90, i32 0, i32 2
  %92 = load ptr, ptr %91, align 8
  %93 = getelementptr inbounds nuw %struct.RelationData, ptr %92, i32 0, i32 14
  %94 = load ptr, ptr %93, align 8
  store ptr %94, ptr %13, align 8
  %95 = load ptr, ptr %3, align 8
  %96 = getelementptr inbounds nuw %struct.ModifyTableState, ptr %95, i32 0, i32 0
  %97 = getelementptr inbounds nuw %struct.PlanState, ptr %96, i32 0, i32 16
  %98 = load ptr, ptr %97, align 8
  %99 = icmp eq ptr %98, null
  br i1 %99, label %100, label %104

100:                                              ; preds = %89
  %101 = load ptr, ptr %7, align 8
  %102 = load ptr, ptr %3, align 8
  %103 = getelementptr inbounds nuw %struct.ModifyTableState, ptr %102, i32 0, i32 0
  call void @ExecAssignExprContext(ptr noundef %101, ptr noundef %103)
  br label %104

104:                                              ; preds = %100, %89
  %105 = load ptr, ptr %8, align 8
  %106 = load ptr, ptr %3, align 8
  %107 = getelementptr inbounds nuw %struct.ModifyTableState, ptr %106, i32 0, i32 0
  %108 = getelementptr inbounds nuw %struct.PlanState, ptr %107, i32 0, i32 16
  %109 = load ptr, ptr %108, align 8
  %110 = load ptr, ptr %4, align 8
  %111 = getelementptr inbounds nuw %struct.ResultRelInfo, ptr %110, i32 0, i32 10
  %112 = load ptr, ptr %111, align 8
  %113 = load ptr, ptr %3, align 8
  %114 = getelementptr inbounds nuw %struct.ModifyTableState, ptr %113, i32 0, i32 0
  %115 = load ptr, ptr %13, align 8
  %116 = call ptr @ExecBuildProjectionInfo(ptr noundef %105, ptr noundef %109, ptr noundef %112, ptr noundef %114, ptr noundef %115)
  %117 = load ptr, ptr %4, align 8
  %118 = getelementptr inbounds nuw %struct.ResultRelInfo, ptr %117, i32 0, i32 9
  store ptr %116, ptr %118, align 8
  call void @llvm.lifetime.end.p0(i64 8, ptr %13) #8
  br label %119

119:                                              ; preds = %104, %74
  %120 = load ptr, ptr %4, align 8
  %121 = getelementptr inbounds nuw %struct.ResultRelInfo, ptr %120, i32 0, i32 12
  store i8 1, ptr %121, align 8
  call void @llvm.lifetime.end.p0(i64 8, ptr %10) #8
  call void @llvm.lifetime.end.p0(i64 1, ptr %9) #8
  call void @llvm.lifetime.end.p0(i64 8, ptr %8) #8
  call void @llvm.lifetime.end.p0(i64 8, ptr %7) #8
  call void @llvm.lifetime.end.p0(i64 8, ptr %6) #8
  call void @llvm.lifetime.end.p0(i64 8, ptr %5) #8
  ret void
}