; Function Attrs: nounwind uwtable
define internal fastcc void @ExecInitInsertProjection(ptr noundef %0, ptr noundef captures(none) %1) unnamed_addr #0 {
  %3 = getelementptr inbounds nuw i8, ptr %0, i64 8
  %4 = load ptr, ptr %3, align 8
  %5 = getelementptr inbounds nuw i8, ptr %4, i64 64
  %6 = load ptr, ptr %5, align 8
  %7 = getelementptr inbounds nuw i8, ptr %0, i64 16
  %8 = load ptr, ptr %7, align 8
  %9 = getelementptr inbounds nuw i8, ptr %6, i64 48
  %10 = load ptr, ptr %9, align 8
  %11 = getelementptr inbounds nuw i8, ptr %10, i64 4
  %.not = icmp eq ptr %10, null
  br i1 %.not, label %._crit_edge, label %.lr.ph

.lr.ph:                                           ; preds = %2
  %12 = getelementptr inbounds nuw i8, ptr %10, i64 16
  %13 = load i32, ptr %11, align 4
  %14 = icmp sgt i32 %13, 0
  br i1 %14, label %.lr.ph48, label %._crit_edge

._crit_edge:                                      ; preds = %31, %.lr.ph, %2
  %.028.lcssa = phi i1 [ false, %2 ], [ false, %.lr.ph ], [ %.129, %31 ]
  %.0.lcssa = phi ptr [ null, %2 ], [ null, %.lr.ph ], [ %.1, %31 ]
  %15 = getelementptr inbounds nuw i8, ptr %1, i64 8
  %16 = load ptr, ptr %15, align 8
  %17 = getelementptr i8, ptr %16, i64 64
  %.val = load ptr, ptr %17, align 8
  tail call fastcc void @ExecCheckPlanOutput(ptr %.val, ptr noundef %.0.lcssa)
  %18 = load ptr, ptr %15, align 8
  %19 = getelementptr inbounds nuw i8, ptr %8, i64 200
  %20 = tail call ptr @table_slot_create(ptr noundef %18, ptr noundef nonnull %19) #9
  %21 = getelementptr inbounds nuw i8, ptr %1, i64 72
  store ptr %20, ptr %21, align 8
  br i1 %.028.lcssa, label %35, label %48

.lr.ph48:                                         ; preds = %.lr.ph, %31
  %22 = phi i32 [ %32, %31 ], [ %13, %.lr.ph ]
  %indvars.iv = phi i64 [ %indvars.iv.next, %31 ], [ 0, %.lr.ph ]
  %.0283646 = phi i1 [ %.129, %31 ], [ false, %.lr.ph ]
  %.03745 = phi ptr [ %.1, %31 ], [ null, %.lr.ph ]
  %23 = load ptr, ptr %12, align 8
  %24 = getelementptr inbounds nuw %union.ListCell, ptr %23, i64 %indvars.iv
  %25 = load ptr, ptr %24, align 8
  %26 = getelementptr inbounds nuw i8, ptr %25, i64 42
  %27 = load i8, ptr %26, align 2, !range !4, !noundef !5
  %28 = trunc nuw i8 %27 to i1
  br i1 %28, label %31, label %29

29:                                               ; preds = %.lr.ph48
  %30 = tail call ptr @lappend(ptr noundef %.03745, ptr noundef nonnull %25) #9
  %.pre = load i32, ptr %11, align 4
  br label %31

31:                                               ; preds = %.lr.ph48, %29
  %32 = phi i32 [ %.pre, %29 ], [ %22, %.lr.ph48 ]
  %.129 = phi i1 [ %.0283646, %29 ], [ true, %.lr.ph48 ]
  %.1 = phi ptr [ %30, %29 ], [ %.03745, %.lr.ph48 ]
  %indvars.iv.next = add nuw nsw i64 %indvars.iv, 1
  %33 = sext i32 %32 to i64
  %34 = icmp slt i64 %indvars.iv.next, %33
  br i1 %34, label %.lr.ph48, label %._crit_edge

35:                                               ; preds = %._crit_edge
  %36 = load ptr, ptr %15, align 8
  %37 = getelementptr inbounds nuw i8, ptr %36, i64 64
  %38 = load ptr, ptr %37, align 8
  %39 = getelementptr inbounds nuw i8, ptr %0, i64 128
  %40 = load ptr, ptr %39, align 8
  %41 = icmp eq ptr %40, null
  br i1 %41, label %42, label %43

42:                                               ; preds = %35
  tail call void @ExecAssignExprContext(ptr noundef nonnull %8, ptr noundef nonnull %0) #9
  %.pre51 = load ptr, ptr %39, align 8
  %.pre52 = load ptr, ptr %21, align 8
  br label %43

43:                                               ; preds = %42, %35
  %44 = phi ptr [ %.pre52, %42 ], [ %20, %35 ]
  %45 = phi ptr [ %.pre51, %42 ], [ %40, %35 ]
  %46 = tail call ptr @ExecBuildProjectionInfo(ptr noundef %.0.lcssa, ptr noundef %45, ptr noundef %44, ptr noundef nonnull %0, ptr noundef %38) #9
  %47 = getelementptr inbounds nuw i8, ptr %1, i64 64
  store ptr %46, ptr %47, align 8
  br label %48

48:                                               ; preds = %43, %._crit_edge
  %49 = getelementptr inbounds nuw i8, ptr %1, i64 88
  store i8 1, ptr %49, align 8
  ret void
}